; Function Attrs: mustprogress nounwind uwtable
define internal fastcc void @_ZN6hermes6ESTree24RecursiveVisitorDispatchINS_12_GLOBAL__N_119DependencyExtractorELb1EE13visitChildrenERS3_PNS0_20InterfaceExtendsNodeE(ptr noundef nonnull align 8 dereferenceable(145) %v, ptr nocapture noundef readonly %node) unnamed_addr #0 align 2 {
entry:
  %_id = getelementptr inbounds i8, ptr %node, i64 48
  %0 = load ptr, ptr %_id, align 8
  tail call fastcc void @_ZN6hermes6ESTree24RecursiveVisitorDispatchINS_12_GLOBAL__N_119DependencyExtractorELb1EE5visitERS3_PNS0_4NodeES7_(ptr noundef nonnull align 8 dereferenceable(145) %v, ptr noundef %0)
  %_typeParameters = getelementptr inbounds i8, ptr %node, i64 56
  %1 = load ptr, ptr %_typeParameters, align 8
  tail call fastcc void @_ZN6hermes6ESTree24RecursiveVisitorDispatchINS_12_GLOBAL__N_119DependencyExtractorELb1EE5visitERS3_PNS0_4NodeES7_(ptr noundef nonnull align 8 dereferenceable(145) %v, ptr noundef %1)
  ret void
}